target datalayout = "e-m:e-p270:32:32-p271:32:32-p272:64:64-i64:64-i128:128-f80:128-n8:16:32:64-S128"
target triple = "x86_64-pc-linux-gnu"

%struct.AVChannelLayout = type { i32, i32, %union.anon.0, ptr }
%union.anon.0 = type { i64 }
%struct.AVCodecContext = type { ptr, i32, i32, ptr, i32, i32, ptr, ptr, ptr, i64, i32, i32, ptr, i32, %struct.AVRational, %struct.AVRational, %struct.AVRational, i32, i32, i32, i32, i32, %struct.AVRational, i32, i32, i32, i32, i32, i32, i32, i32, i32, i32, i32, ptr, ptr, i32, float, float, float, float, float, float, float, float, float, i32, i32, i32, i32, i32, i32, i32, i32, i32, i32, i32, i32, ptr, ptr, ptr, i32, i32, i32, i32, i32, i32, i32, i32, i32, i32, %struct.AVChannelLayout, i32, i32, i32, i32, i32, i32, i32, i32, ptr, i32, i32, i32, float, float, i32, i32, i32, i32, i32, ptr, i64, i64, float, float, i32, i32, ptr, ptr, i32, i32, i32, i32, i32, ptr, ptr, ptr, ptr, i32, i32, [8 x i64], i32, i32, i32, i32, i32, i32, i32, ptr, ptr, i32, i32, i32, i32, i32, i32, i32, i32, i32, i32, ptr, ptr, i32, i32, ptr, ptr, ptr, ptr, i32, i32, i64, i32, i32, i64, ptr, i64, ptr, i32, ptr, i32 }
%struct.AVRational = type { i32, i32 }
%struct.TSContext = type { %struct.BswapDSPContext, [32 x i8], [8 x i16], [2 x i32], [4 x i32], [4 x i32], [4 x i32], [4 x i32], i32, [146 x i32], [8 x i32], [8 x i16], [8 x i16], [8 x i16], [8 x i16], i32, [60 x i16], [32 x i16] }
%struct.BswapDSPContext = type { ptr, ptr }

@.str.2 = private unnamed_addr constant [17 x i8] c"Channel count %d\00", align 1

; Function Attrs: cold nounwind optsize uwtable
define internal i32 @truespeech_decode_init(ptr noundef %0) #0 {
  %2 = alloca i32, align 4
  %3 = alloca ptr, align 8
  %4 = alloca ptr, align 8
  %5 = alloca i32, align 4
  %6 = alloca %struct.AVChannelLayout, align 8
  store ptr %0, ptr %3, align 8, !tbaa !4
  call void @llvm.lifetime.start.p0(i64 8, ptr %4) #8
  %7 = load ptr, ptr %3, align 8, !tbaa !4
  %8 = getelementptr inbounds nuw %struct.AVCodecContext, ptr %7, i32 0, i32 6
  %9 = load ptr, ptr %8, align 8, !tbaa !9
  store ptr %9, ptr %4, align 8, !tbaa !29
  %10 = load ptr, ptr %3, align 8, !tbaa !4
  %11 = getelementptr inbounds nuw %struct.AVCodecContext, ptr %10, i32 0, i32 71
  %12 = getelementptr inbounds nuw %struct.AVChannelLayout, ptr %11, i32 0, i32 1
  %13 = load i32, ptr %12, align 4, !tbaa !31
  %14 = icmp ne i32 %13, 1
  br i1 %14, label %15, label %21

15:                                               ; preds = %1
  %16 = load ptr, ptr %3, align 8, !tbaa !4
  %17 = load ptr, ptr %3, align 8, !tbaa !4
  %18 = getelementptr inbounds nuw %struct.AVCodecContext, ptr %17, i32 0, i32 71
  %19 = getelementptr inbounds nuw %struct.AVChannelLayout, ptr %18, i32 0, i32 1
  %20 = load i32, ptr %19, align 4, !tbaa !31
  call void (ptr, ptr, ...) @avpriv_request_sample(ptr noundef %16, ptr noundef @.str.2, i32 noundef %20)
  store i32 -1163346256, ptr %2, align 4
  store i32 1, ptr %5, align 4
  br label %34

21:                                               ; preds = %1
  %22 = load ptr, ptr %3, align 8, !tbaa !4
  %23 = getelementptr inbounds nuw %struct.AVCodecContext, ptr %22, i32 0, i32 71
  call void @av_channel_layout_uninit(ptr noundef %23)
  %24 = load ptr, ptr %3, align 8, !tbaa !4
  %25 = getelementptr inbounds nuw %struct.AVCodecContext, ptr %24, i32 0, i32 71
  %26 = getelementptr inbounds nuw %struct.AVChannelLayout, ptr %6, i32 0, i32 0
  store i32 1, ptr %26, align 8, !tbaa !32
  %27 = getelementptr inbounds nuw %struct.AVChannelLayout, ptr %6, i32 0, i32 1
  store i32 1, ptr %27, align 4, !tbaa !33
  %28 = getelementptr inbounds nuw %struct.AVChannelLayout, ptr %6, i32 0, i32 2
  store i64 4, ptr %28, align 8, !tbaa !34
  %29 = getelementptr inbounds nuw %struct.AVChannelLayout, ptr %6, i32 0, i32 3
  store ptr null, ptr %29, align 8, !tbaa !35
  call void @llvm.memcpy.p0.p0.i64(ptr align 8 %25, ptr align 8 %6, i64 24, i1 false), !tbaa.struct !36
  %30 = load ptr, ptr %3, align 8, !tbaa !4
  %31 = getelementptr inbounds nuw %struct.AVCodecContext, ptr %30, i32 0, i32 70
  store i32 1, ptr %31, align 4, !tbaa !39
  %32 = load ptr, ptr %4, align 8, !tbaa !29
  %33 = getelementptr inbounds nuw %struct.TSContext, ptr %32, i32 0, i32 0
  call void @ff_bswapdsp_init(ptr noundef %33)
  store i32 0, ptr %2, align 4
  store i32 1, ptr %5, align 4
  br label %34

34:                                               ; preds = %21, %15
  call void @llvm.lifetime.end.p0(i64 8, ptr %4) #8
  %35 = load i32, ptr %2, align 4
  ret i32 %35
}