; Function Attrs: cold nounwind optsize uwtable
define internal range(i32 -1163346256, 1) i32 @truespeech_decode_init(ptr noundef %0) #0 {
  %2 = getelementptr inbounds nuw i8, ptr %0, i64 356
  %3 = load i32, ptr %2, align 4, !tbaa !4
  %.not = icmp eq i32 %3, 1
  br i1 %.not, label %5, label %4

4:                                                ; preds = %1
  tail call void (ptr, ptr, ...) @avpriv_request_sample(ptr noundef nonnull %0, ptr noundef nonnull @.str.2, i32 noundef %3) #7
  br label %10

5:                                                ; preds = %1
  %6 = getelementptr inbounds nuw i8, ptr %0, i64 352
  %7 = getelementptr inbounds nuw i8, ptr %0, i64 32
  %8 = load ptr, ptr %7, align 8, !tbaa !27
  tail call void @av_channel_layout_uninit(ptr noundef nonnull %6) #7
  store i32 1, ptr %6, align 8, !tbaa !28
  store i32 1, ptr %2, align 4, !tbaa !28
  %.sroa.3.0..sroa_idx = getelementptr inbounds nuw i8, ptr %0, i64 360
  store i64 4, ptr %.sroa.3.0..sroa_idx, align 8, !tbaa !29
  %.sroa.4.0..sroa_idx = getelementptr inbounds nuw i8, ptr %0, i64 368
  store ptr null, ptr %.sroa.4.0..sroa_idx, align 8, !tbaa !30
  %9 = getelementptr inbounds nuw i8, ptr %0, i64 348
  store i32 1, ptr %9, align 4, !tbaa !31
  tail call void @ff_bswapdsp_init(ptr noundef %8) #7
  br label %10

10:                                               ; preds = %5, %4
  %.0 = phi i32 [ -1163346256, %4 ], [ 0, %5 ]
  ret i32 %.0
}